	.file	"softISR.c"
	.text
.Ltext0:
	.comm	a,4,4
	.comm	b,4,4
	.comm	p,8,8
	.comm	jump_destination,200,32
	.section	.rodata
	.align 8
.LC0:
	.string	"\nError dereferencing pointer and we're in interrupt handler"
	.text
	.globl	exception_handler
	.type	exception_handler, @function
exception_handler:
.LFB0:
	.file 1 "softISR.c"
	.loc 1 8 0
	.cfi_startproc
	pushq	%rbp
	.cfi_def_cfa_offset 16
	.cfi_offset 6, -16
	movq	%rsp, %rbp
	.cfi_def_cfa_register 6
	subq	$16, %rsp
	movl	%edi, -4(%rbp)
	.loc 1 9 0
	movl	$.LC0, %edi
	call	puts
	.loc 1 10 0
	movq	$b, p(%rip)
	.loc 1 11 0
	movl	$1, %esi
	movl	$jump_destination, %edi
	call	longjmp
	.cfi_endproc
.LFE0:
	.size	exception_handler, .-exception_handler
	.section	.rodata
	.align 8
.LC1:
	.string	"Addr of interrupt handler -> %8.8X \n"
	.align 8
.LC2:
	.string	"Trying to dereference pointer p with value ->  "
.LC3:
	.string	"%8.8X .\n "
	.align 8
.LC4:
	.string	"After dereferencing pointer, its value is: %d\n"
	.text
	.globl	main
	.type	main, @function
main:
.LFB1:
	.loc 1 15 0
	.cfi_startproc
	pushq	%rbp
	.cfi_def_cfa_offset 16
	.cfi_offset 6, -16
	movq	%rsp, %rbp
	.cfi_def_cfa_register 6
	.loc 1 18 0
	movl	$exception_handler, %esi
	movl	$11, %edi
	call	signal
	.loc 1 19 0
	movl	$3, b(%rip)
	.loc 1 20 0
	movq	$0, p(%rip)
	.loc 1 22 0
	movl	$exception_handler, %esi
	movl	$.LC1, %edi
	movl	$0, %eax
	call	printf
	.loc 1 24 0
	movl	$jump_destination, %edi
	call	_setjmp
	.loc 1 25 0
	movl	$.LC2, %edi
	movl	$0, %eax
	call	printf
	.loc 1 26 0
	movq	p(%rip), %rax
	movl	(%rax), %eax
	movl	%eax, %esi
	movl	$.LC3, %edi
	movl	$0, %eax
	call	printf
	.loc 1 27 0
	movq	p(%rip), %rax
	movl	(%rax), %eax
	movl	%eax, %esi
	movl	$.LC4, %edi
	movl	$0, %eax
	call	printf
	.loc 1 28 0
	nop
	popq	%rbp
	.cfi_def_cfa 7, 8
	ret
	.cfi_endproc
.LFE1:
	.size	main, .-main
.Letext0:
	.file 2 "/usr/include/x86_64-linux-gnu/bits/sigset.h"
	.file 3 "/usr/include/x86_64-linux-gnu/bits/setjmp.h"
	.file 4 "/usr/include/setjmp.h"
	.section	.note.GNU-stack,"",@progbits
